; ModuleID = '27/2158.c'
source_filename = "27/2158.c"
target datalayout = "e-m:e-p270:32:32-p271:32:32-p272:64:64-i64:64-f80:128-n8:16:32:64-S128"
target triple = "x86_64-pc-linux-gnu"

@.str = private unnamed_addr constant [3 x i8] c"%d\00", align 1
@.str.1 = private unnamed_addr constant [12 x i8] c"%lf %lf %lf\00", align 1
@.str.2 = private unnamed_addr constant [17 x i8] c"x1=%.5f;x2=%.5f\0A\00", align 1
@.str.3 = private unnamed_addr constant [29 x i8] c"x1=%.5f+%.5fi;x2=%.5f-%.5fi\0A\00", align 1
@.str.4 = private unnamed_addr constant [12 x i8] c"x1=x2=%.5f\0A\00", align 1

; Function Attrs: noinline nounwind uwtable
define dso_local i32 @main() #0 {
  %1 = alloca i32, align 4
  %2 = alloca i32, align 4
  %3 = alloca i32, align 4
  %4 = alloca double, align 8
  %5 = alloca double, align 8
  %6 = alloca double, align 8
  %7 = alloca double, align 8
  %8 = alloca double, align 8
  %9 = alloca double, align 8
  %10 = alloca double, align 8
  store i32 0, i32* %1, align 4
  %11 = call i32 (i8*, ...) @__isoc99_scanf(i8* getelementptr inbounds ([3 x i8], [3 x i8]* @.str, i64 0, i64 0), i32* %2)
  store i32 1, i32* %3, align 4
  br label %12

12:                                               ; preds = %112, %0
  %13 = load i32, i32* %3, align 4
  %14 = load i32, i32* %2, align 4
  %15 = icmp sle i32 %13, %14
  br i1 %15, label %16, label %115

16:                                               ; preds = %12
  %17 = call i32 (i8*, ...) @__isoc99_scanf(i8* getelementptr inbounds ([12 x i8], [12 x i8]* @.str.1, i64 0, i64 0), double* %4, double* %5, double* %6)
  %18 = load double, double* %5, align 8
  %19 = load double, double* %5, align 8
  %20 = fmul double %18, %19
  %21 = load double, double* %4, align 8
  %22 = fmul double 4.000000e+00, %21
  %23 = load double, double* %6, align 8
  %24 = fmul double %22, %23
  %25 = fcmp ogt double %20, %24
  br i1 %25, label %26, label %60

26:                                               ; preds = %16
  %27 = load double, double* %5, align 8
  %28 = fsub double 0.000000e+00, %27
  %29 = load double, double* %5, align 8
  %30 = load double, double* %5, align 8
  %31 = fmul double %29, %30
  %32 = load double, double* %4, align 8
  %33 = fmul double 4.000000e+00, %32
  %34 = load double, double* %6, align 8
  %35 = fmul double %33, %34
  %36 = fsub double %31, %35
  %37 = call double @sqrt(double %36) #3
  %38 = fadd double %28, %37
  %39 = load double, double* %4, align 8
  %40 = fmul double 2.000000e+00, %39
  %41 = fdiv double %38, %40
  store double %41, double* %7, align 8
  %42 = load double, double* %5, align 8
  %43 = fsub double 0.000000e+00, %42
  %44 = load double, double* %5, align 8
  %45 = load double, double* %5, align 8
  %46 = fmul double %44, %45
  %47 = load double, double* %4, align 8
  %48 = fmul double 4.000000e+00, %47
  %49 = load double, double* %6, align 8
  %50 = fmul double %48, %49
  %51 = fsub double %46, %50
  %52 = call double @sqrt(double %51) #3
  %53 = fsub double %43, %52
  %54 = load double, double* %4, align 8
  %55 = fmul double 2.000000e+00, %54
  %56 = fdiv double %53, %55
  store double %56, double* %8, align 8
  %57 = load double, double* %7, align 8
  %58 = load double, double* %8, align 8
  %59 = call i32 (i8*, ...) @printf(i8* getelementptr inbounds ([17 x i8], [17 x i8]* @.str.2, i64 0, i64 0), double %57, double %58)
  br label %111

60:                                               ; preds = %16
  %61 = load double, double* %5, align 8
  %62 = load double, double* %5, align 8
  %63 = fmul double %61, %62
  %64 = load double, double* %4, align 8
  %65 = fmul double 4.000000e+00, %64
  %66 = load double, double* %6, align 8
  %67 = fmul double %65, %66
  %68 = fcmp olt double %63, %67
  br i1 %68, label %69, label %92

69:                                               ; preds = %60
  %70 = load double, double* %5, align 8
  %71 = fsub double 0.000000e+00, %70
  %72 = load double, double* %4, align 8
  %73 = fmul double 2.000000e+00, %72
  %74 = fdiv double %71, %73
  store double %74, double* %9, align 8
  %75 = load double, double* %4, align 8
  %76 = fmul double 4.000000e+00, %75
  %77 = load double, double* %6, align 8
  %78 = fmul double %76, %77
  %79 = load double, double* %5, align 8
  %80 = load double, double* %5, align 8
  %81 = fmul double %79, %80
  %82 = fsub double %78, %81
  %83 = call double @sqrt(double %82) #3
  %84 = load double, double* %4, align 8
  %85 = fmul double 2.000000e+00, %84
  %86 = fdiv double %83, %85
  store double %86, double* %10, align 8
  %87 = load double, double* %9, align 8
  %88 = load double, double* %10, align 8
  %89 = load double, double* %9, align 8
  %90 = load double, double* %10, align 8
  %91 = call i32 (i8*, ...) @printf(i8* getelementptr inbounds ([29 x i8], [29 x i8]* @.str.3, i64 0, i64 0), double %87, double %88, double %89, double %90)
  br label %110

92:                                               ; preds = %60
  %93 = load double, double* %5, align 8
  %94 = fsub double 0.000000e+00, %93
  %95 = load double, double* %5, align 8
  %96 = load double, double* %5, align 8
  %97 = fmul double %95, %96
  %98 = load double, double* %4, align 8
  %99 = fmul double 4.000000e+00, %98
  %100 = load double, double* %6, align 8
  %101 = fmul double %99, %100
  %102 = fsub double %97, %101
  %103 = call double @sqrt(double %102) #3
  %104 = fadd double %94, %103
  %105 = load double, double* %4, align 8
  %106 = fmul double 2.000000e+00, %105
  %107 = fdiv double %104, %106
  store double %107, double* %7, align 8
  %108 = load double, double* %7, align 8
  %109 = call i32 (i8*, ...) @printf(i8* getelementptr inbounds ([12 x i8], [12 x i8]* @.str.4, i64 0, i64 0), double %108)
  br label %110

110:                                              ; preds = %92, %69
  br label %111

111:                                              ; preds = %110, %26
  br label %112

112:                                              ; preds = %111
  %113 = load i32, i32* %3, align 4
  %114 = add nsw i32 %113, 1
  store i32 %114, i32* %3, align 4
  br label %12

115:                                              ; preds = %12
  %116 = load i32, i32* %1, align 4
  ret i32 %116
}

declare dso_local i32 @__isoc99_scanf(i8*, ...) #1

; Function Attrs: nounwind
declare dso_local double @sqrt(double) #2

declare dso_local i32 @printf(i8*, ...) #1


!llvm.module.flags = !{!0}
!llvm.ident = !{!1}

!0 = !{i32 1, !"wchar_size", i32 4}
!1 = !{!"clang version 10.0.0-4ubuntu1 "}
